target datalayout = "e-m:e-p270:32:32-p271:32:32-p272:64:64-i64:64-f80:128-n8:16:32:64-S128"
target triple = "x86_64-pc-linux-gnu"

@.str = private unnamed_addr constant [3 x i8] c"%d\00", align 1
@.str.1 = private unnamed_addr constant [5 x i8] c"%d%d\00", align 1
@.str.2 = private unnamed_addr constant [4 x i8] c"%d\0A\00", align 1

; Function Attrs: noinline nounwind uwtable
define dso_local i32 @main() #0 {
  %1 = alloca i32, align 4
  %2 = alloca i32, align 4
  %3 = alloca i32, align 4
  %4 = alloca i32, align 4
  %5 = alloca i32, align 4
  %6 = alloca i32, align 4
  %7 = alloca i32, align 4
  %8 = alloca i32, align 4
  %9 = alloca [100 x [100 x i32]], align 16
  %10 = alloca [100 x i32], align 16
  store i32 0, i32* %1, align 4
  %11 = bitcast [100 x [100 x i32]]* %9 to i8*
  call void @llvm.memset.p0i8.i64(i8* align 16 %11, i8 0, i64 40000, i1 false)
  %12 = call i32 (i8*, ...) @__isoc99_scanf(i8* getelementptr inbounds ([3 x i8], [3 x i8]* @.str, i64 0, i64 0), i32* %3)
  store i32 1, i32* %4, align 4
  br label %13

13:                                               ; preds = %122, %0
  %14 = load i32, i32* %4, align 4
  %15 = load i32, i32* %3, align 4
  %16 = icmp sle i32 %14, %15
  br i1 %16, label %17, label %125

17:                                               ; preds = %13
  %18 = call i32 (i8*, ...) @__isoc99_scanf(i8* getelementptr inbounds ([5 x i8], [5 x i8]* @.str.1, i64 0, i64 0), i32* %5, i32* %6)
  store i32 0, i32* %7, align 4
  br label %19

19:                                               ; preds = %40, %17
  %20 = load i32, i32* %7, align 4
  %21 = load i32, i32* %5, align 4
  %22 = icmp slt i32 %20, %21
  br i1 %22, label %23, label %43

23:                                               ; preds = %19
  store i32 0, i32* %8, align 4
  br label %24

24:                                               ; preds = %36, %23
  %25 = load i32, i32* %8, align 4
  %26 = load i32, i32* %6, align 4
  %27 = icmp slt i32 %25, %26
  br i1 %27, label %28, label %39

28:                                               ; preds = %24
  %29 = load i32, i32* %7, align 4
  %30 = sext i32 %29 to i64
  %31 = getelementptr inbounds [100 x [100 x i32]], [100 x [100 x i32]]* %9, i64 0, i64 %30
  %32 = load i32, i32* %8, align 4
  %33 = sext i32 %32 to i64
  %34 = getelementptr inbounds [100 x i32], [100 x i32]* %31, i64 0, i64 %33
  %35 = call i32 (i8*, ...) @__isoc99_scanf(i8* getelementptr inbounds ([3 x i8], [3 x i8]* @.str, i64 0, i64 0), i32* %34)
  br label %36

36:                                               ; preds = %28
  %37 = load i32, i32* %8, align 4
  %38 = add nsw i32 %37, 1
  store i32 %38, i32* %8, align 4
  br label %24

39:                                               ; preds = %24
  br label %40

40:                                               ; preds = %39
  %41 = load i32, i32* %7, align 4
  %42 = add nsw i32 %41, 1
  store i32 %42, i32* %7, align 4
  br label %19

43:                                               ; preds = %19
  store i32 0, i32* %2, align 4
  store i32 0, i32* %8, align 4
  br label %44

44:                                               ; preds = %57, %43
  %45 = load i32, i32* %8, align 4
  %46 = load i32, i32* %6, align 4
  %47 = sub nsw i32 %46, 1
  %48 = icmp sle i32 %45, %47
  br i1 %48, label %49, label %60

49:                                               ; preds = %44
  %50 = getelementptr inbounds [100 x [100 x i32]], [100 x [100 x i32]]* %9, i64 0, i64 0
  %51 = load i32, i32* %8, align 4
  %52 = sext i32 %51 to i64
  %53 = getelementptr inbounds [100 x i32], [100 x i32]* %50, i64 0, i64 %52
  %54 = load i32, i32* %53, align 4
  %55 = load i32, i32* %2, align 4
  %56 = add nsw i32 %55, %54
  store i32 %56, i32* %2, align 4
  br label %57

57:                                               ; preds = %49
  %58 = load i32, i32* %8, align 4
  %59 = add nsw i32 %58, 1
  store i32 %59, i32* %8, align 4
  br label %44

60:                                               ; preds = %44
  store i32 1, i32* %7, align 4
  br label %61

61:                                               ; preds = %77, %60
  %62 = load i32, i32* %7, align 4
  %63 = load i32, i32* %5, align 4
  %64 = sub nsw i32 %63, 1
  %65 = icmp sle i32 %62, %64
  br i1 %65, label %66, label %80

66:                                               ; preds = %61
  %67 = load i32, i32* %7, align 4
  %68 = sext i32 %67 to i64
  %69 = getelementptr inbounds [100 x [100 x i32]], [100 x [100 x i32]]* %9, i64 0, i64 %68
  %70 = load i32, i32* %6, align 4
  %71 = sub nsw i32 %70, 1
  %72 = sext i32 %71 to i64
  %73 = getelementptr inbounds [100 x i32], [100 x i32]* %69, i64 0, i64 %72
  %74 = load i32, i32* %73, align 4
  %75 = load i32, i32* %2, align 4
  %76 = add nsw i32 %75, %74
  store i32 %76, i32* %2, align 4
  br label %77

77:                                               ; preds = %66
  %78 = load i32, i32* %7, align 4
  %79 = add nsw i32 %78, 1
  store i32 %79, i32* %7, align 4
  br label %61

80:                                               ; preds = %61
  %81 = load i32, i32* %6, align 4
  %82 = sub nsw i32 %81, 2
  store i32 %82, i32* %8, align 4
  br label %83

83:                                               ; preds = %97, %80
  %84 = load i32, i32* %8, align 4
  %85 = icmp sge i32 %84, 0
  br i1 %85, label %86, label %100

86:                                               ; preds = %83
  %87 = load i32, i32* %5, align 4
  %88 = sub nsw i32 %87, 1
  %89 = sext i32 %88 to i64
  %90 = getelementptr inbounds [100 x [100 x i32]], [100 x [100 x i32]]* %9, i64 0, i64 %89
  %91 = load i32, i32* %8, align 4
  %92 = sext i32 %91 to i64
  %93 = getelementptr inbounds [100 x i32], [100 x i32]* %90, i64 0, i64 %92
  %94 = load i32, i32* %93, align 4
  %95 = load i32, i32* %2, align 4
  %96 = add nsw i32 %95, %94
  store i32 %96, i32* %2, align 4
  br label %97

97:                                               ; preds = %86
  %98 = load i32, i32* %8, align 4
  %99 = add nsw i32 %98, -1
  store i32 %99, i32* %8, align 4
  br label %83

100:                                              ; preds = %83
  %101 = load i32, i32* %5, align 4
  %102 = sub nsw i32 %101, 2
  store i32 %102, i32* %7, align 4
  br label %103

103:                                              ; preds = %114, %100
  %104 = load i32, i32* %7, align 4
  %105 = icmp sge i32 %104, 1
  br i1 %105, label %106, label %117

106:                                              ; preds = %103
  %107 = load i32, i32* %7, align 4
  %108 = sext i32 %107 to i64
  %109 = getelementptr inbounds [100 x [100 x i32]], [100 x [100 x i32]]* %9, i64 0, i64 %108
  %110 = getelementptr inbounds [100 x i32], [100 x i32]* %109, i64 0, i64 0
  %111 = load i32, i32* %110, align 16
  %112 = load i32, i32* %2, align 4
  %113 = add nsw i32 %112, %111
  store i32 %113, i32* %2, align 4
  br label %114

114:                                              ; preds = %106
  %115 = load i32, i32* %7, align 4
  %116 = add nsw i32 %115, -1
  store i32 %116, i32* %7, align 4
  br label %103

117:                                              ; preds = %103
  %118 = load i32, i32* %2, align 4
  %119 = load i32, i32* %4, align 4
  %120 = sext i32 %119 to i64
  %121 = getelementptr inbounds [100 x i32], [100 x i32]* %10, i64 0, i64 %120
  store i32 %118, i32* %121, align 4
  br label %122

122:                                              ; preds = %117
  %123 = load i32, i32* %4, align 4
  %124 = add nsw i32 %123, 1
  store i32 %124, i32* %4, align 4
  br label %13

125:                                              ; preds = %13
  store i32 1, i32* %4, align 4
  br label %126

126:                                              ; preds = %136, %125
  %127 = load i32, i32* %4, align 4
  %128 = load i32, i32* %3, align 4
  %129 = icmp sle i32 %127, %128
  br i1 %129, label %130, label %139

130:                                              ; preds = %126
  %131 = load i32, i32* %4, align 4
  %132 = sext i32 %131 to i64
  %133 = getelementptr inbounds [100 x i32], [100 x i32]* %10, i64 0, i64 %132
  %134 = load i32, i32* %133, align 4
  %135 = call i32 (i8*, ...) @printf(i8* getelementptr inbounds ([4 x i8], [4 x i8]* @.str.2, i64 0, i64 0), i32 %134)
  br label %136

136:                                              ; preds = %130
  %137 = load i32, i32* %4, align 4
  %138 = add nsw i32 %137, 1
  store i32 %138, i32* %4, align 4
  br label %126

139:                                              ; preds = %126
  ret i32 0
}